; ModuleID = '51/89.c'
source_filename = "51/89.c"
target datalayout = "e-m:e-p270:32:32-p271:32:32-p272:64:64-i64:64-f80:128-n8:16:32:64-S128"
target triple = "x86_64-pc-linux-gnu"

@.str = private unnamed_addr constant [3 x i8] c"%d\00", align 1
@.str.1 = private unnamed_addr constant [3 x i8] c"%s\00", align 1
@.str.2 = private unnamed_addr constant [4 x i8] c"%d\0A\00", align 1
@.str.3 = private unnamed_addr constant [3 x i8] c"%c\00", align 1
@.str.4 = private unnamed_addr constant [2 x i8] c"\0A\00", align 1
@.str.5 = private unnamed_addr constant [3 x i8] c"NO\00", align 1

; Function Attrs: noinline nounwind uwtable
define dso_local i32 @main() #0 {
  %1 = alloca i32, align 4
  %2 = alloca i32, align 4
  %3 = alloca i32, align 4
  %4 = alloca i32, align 4
  %5 = alloca i32, align 4
  %6 = alloca i32, align 4
  %7 = alloca i32, align 4
  %8 = alloca [500 x i8], align 16
  %9 = alloca [500 x [5 x i8]], align 16
  %10 = alloca [500 x i8], align 16
  store i32 0, i32* %1, align 4
  %11 = bitcast [500 x [5 x i8]]* %9 to i8*
  call void @llvm.memset.p0i8.i64(i8* align 16 %11, i8 0, i64 2500, i1 false)
  %12 = bitcast [500 x i8]* %10 to i8*
  call void @llvm.memset.p0i8.i64(i8* align 16 %12, i8 0, i64 500, i1 false)
  %13 = call i32 (i8*, ...) @__isoc99_scanf(i8* getelementptr inbounds ([3 x i8], [3 x i8]* @.str, i64 0, i64 0), i32* %2)
  %14 = getelementptr inbounds [500 x i8], [500 x i8]* %8, i64 0, i64 0
  %15 = call i32 (i8*, ...) @__isoc99_scanf(i8* getelementptr inbounds ([3 x i8], [3 x i8]* @.str.1, i64 0, i64 0), i8* %14)
  %16 = getelementptr inbounds [500 x i8], [500 x i8]* %8, i64 0, i64 0
  %17 = call i64 @strlen(i8* %16) #4
  %18 = trunc i64 %17 to i32
  store i32 %18, i32* %6, align 4
  store i32 0, i32* %3, align 4
  br label %19

19:                                               ; preds = %49, %0
  %20 = load i32, i32* %3, align 4
  %21 = load i32, i32* %6, align 4
  %22 = load i32, i32* %2, align 4
  %23 = sub nsw i32 %21, %22
  %24 = add nsw i32 %23, 1
  %25 = icmp slt i32 %20, %24
  br i1 %25, label %26, label %52

26:                                               ; preds = %19
  store i32 0, i32* %4, align 4
  %27 = load i32, i32* %3, align 4
  store i32 %27, i32* %5, align 4
  br label %28

28:                                               ; preds = %43, %26
  %29 = load i32, i32* %4, align 4
  %30 = load i32, i32* %2, align 4
  %31 = icmp slt i32 %29, %30
  br i1 %31, label %32, label %48

32:                                               ; preds = %28
  %33 = load i32, i32* %5, align 4
  %34 = sext i32 %33 to i64
  %35 = getelementptr inbounds [500 x i8], [500 x i8]* %8, i64 0, i64 %34
  %36 = load i8, i8* %35, align 1
  %37 = load i32, i32* %3, align 4
  %38 = sext i32 %37 to i64
  %39 = getelementptr inbounds [500 x [5 x i8]], [500 x [5 x i8]]* %9, i64 0, i64 %38
  %40 = load i32, i32* %4, align 4
  %41 = sext i32 %40 to i64
  %42 = getelementptr inbounds [5 x i8], [5 x i8]* %39, i64 0, i64 %41
  store i8 %36, i8* %42, align 1
  br label %43

43:                                               ; preds = %32
  %44 = load i32, i32* %4, align 4
  %45 = add nsw i32 %44, 1
  store i32 %45, i32* %4, align 4
  %46 = load i32, i32* %5, align 4
  %47 = add nsw i32 %46, 1
  store i32 %47, i32* %5, align 4
  br label %28

48:                                               ; preds = %28
  br label %49

49:                                               ; preds = %48
  %50 = load i32, i32* %3, align 4
  %51 = add nsw i32 %50, 1
  store i32 %51, i32* %3, align 4
  br label %19

52:                                               ; preds = %19
  store i32 0, i32* %3, align 4
  br label %53

53:                                               ; preds = %91, %52
  %54 = load i32, i32* %3, align 4
  %55 = load i32, i32* %6, align 4
  %56 = load i32, i32* %2, align 4
  %57 = sub nsw i32 %55, %56
  %58 = icmp slt i32 %54, %57
  br i1 %58, label %59, label %94

59:                                               ; preds = %53
  %60 = load i32, i32* %3, align 4
  %61 = add nsw i32 %60, 1
  store i32 %61, i32* %4, align 4
  br label %62

62:                                               ; preds = %87, %59
  %63 = load i32, i32* %4, align 4
  %64 = load i32, i32* %6, align 4
  %65 = load i32, i32* %2, align 4
  %66 = sub nsw i32 %64, %65
  %67 = add nsw i32 %66, 1
  %68 = icmp slt i32 %63, %67
  br i1 %68, label %69, label %90

69:                                               ; preds = %62
  %70 = load i32, i32* %3, align 4
  %71 = sext i32 %70 to i64
  %72 = getelementptr inbounds [500 x [5 x i8]], [500 x [5 x i8]]* %9, i64 0, i64 %71
  %73 = getelementptr inbounds [5 x i8], [5 x i8]* %72, i64 0, i64 0
  %74 = load i32, i32* %4, align 4
  %75 = sext i32 %74 to i64
  %76 = getelementptr inbounds [500 x [5 x i8]], [500 x [5 x i8]]* %9, i64 0, i64 %75
  %77 = getelementptr inbounds [5 x i8], [5 x i8]* %76, i64 0, i64 0
  %78 = call i32 @strcmp(i8* %73, i8* %77) #4
  %79 = icmp eq i32 %78, 0
  br i1 %79, label %80, label %86

80:                                               ; preds = %69
  %81 = load i32, i32* %3, align 4
  %82 = sext i32 %81 to i64
  %83 = getelementptr inbounds [500 x i8], [500 x i8]* %10, i64 0, i64 %82
  %84 = load i8, i8* %83, align 1
  %85 = add i8 %84, 1
  store i8 %85, i8* %83, align 1
  br label %86

86:                                               ; preds = %80, %69
  br label %87

87:                                               ; preds = %86
  %88 = load i32, i32* %4, align 4
  %89 = add nsw i32 %88, 1
  store i32 %89, i32* %4, align 4
  br label %62

90:                                               ; preds = %62
  br label %91

91:                                               ; preds = %90
  %92 = load i32, i32* %3, align 4
  %93 = add nsw i32 %92, 1
  store i32 %93, i32* %3, align 4
  br label %53

94:                                               ; preds = %53
  %95 = getelementptr inbounds [500 x i8], [500 x i8]* %10, i64 0, i64 0
  %96 = load i8, i8* %95, align 16
  %97 = sext i8 %96 to i32
  store i32 %97, i32* %7, align 4
  store i32 0, i32* %3, align 4
  br label %98

98:                                               ; preds = %119, %94
  %99 = load i32, i32* %3, align 4
  %100 = load i32, i32* %6, align 4
  %101 = load i32, i32* %2, align 4
  %102 = sub nsw i32 %100, %101
  %103 = icmp slt i32 %99, %102
  br i1 %103, label %104, label %122

104:                                              ; preds = %98
  %105 = load i32, i32* %3, align 4
  %106 = sext i32 %105 to i64
  %107 = getelementptr inbounds [500 x i8], [500 x i8]* %10, i64 0, i64 %106
  %108 = load i8, i8* %107, align 1
  %109 = sext i8 %108 to i32
  %110 = load i32, i32* %7, align 4
  %111 = icmp sgt i32 %109, %110
  br i1 %111, label %112, label %118

112:                                              ; preds = %104
  %113 = load i32, i32* %3, align 4
  %114 = sext i32 %113 to i64
  %115 = getelementptr inbounds [500 x i8], [500 x i8]* %10, i64 0, i64 %114
  %116 = load i8, i8* %115, align 1
  %117 = sext i8 %116 to i32
  store i32 %117, i32* %7, align 4
  br label %118

118:                                              ; preds = %112, %104
  br label %119

119:                                              ; preds = %118
  %120 = load i32, i32* %3, align 4
  %121 = add nsw i32 %120, 1
  store i32 %121, i32* %3, align 4
  br label %98

122:                                              ; preds = %98
  %123 = load i32, i32* %7, align 4
  %124 = icmp ne i32 %123, 0
  br i1 %124, label %125, label %169

125:                                              ; preds = %122
  %126 = load i32, i32* %7, align 4
  %127 = add nsw i32 %126, 1
  %128 = call i32 (i8*, ...) @printf(i8* getelementptr inbounds ([4 x i8], [4 x i8]* @.str.2, i64 0, i64 0), i32 %127)
  store i32 0, i32* %3, align 4
  br label %129

129:                                              ; preds = %165, %125
  %130 = load i32, i32* %3, align 4
  %131 = load i32, i32* %6, align 4
  %132 = load i32, i32* %2, align 4
  %133 = sub nsw i32 %131, %132
  %134 = add nsw i32 %133, 1
  %135 = icmp slt i32 %130, %134
  br i1 %135, label %136, label %168

136:                                              ; preds = %129
  %137 = load i32, i32* %3, align 4
  %138 = sext i32 %137 to i64
  %139 = getelementptr inbounds [500 x i8], [500 x i8]* %10, i64 0, i64 %138
  %140 = load i8, i8* %139, align 1
  %141 = sext i8 %140 to i32
  %142 = load i32, i32* %7, align 4
  %143 = icmp eq i32 %141, %142
  br i1 %143, label %144, label %164

144:                                              ; preds = %136
  store i32 0, i32* %4, align 4
  br label %145

145:                                              ; preds = %159, %144
  %146 = load i32, i32* %4, align 4
  %147 = load i32, i32* %2, align 4
  %148 = icmp slt i32 %146, %147
  br i1 %148, label %149, label %162

149:                                              ; preds = %145
  %150 = load i32, i32* %3, align 4
  %151 = sext i32 %150 to i64
  %152 = getelementptr inbounds [500 x [5 x i8]], [500 x [5 x i8]]* %9, i64 0, i64 %151
  %153 = load i32, i32* %4, align 4
  %154 = sext i32 %153 to i64
  %155 = getelementptr inbounds [5 x i8], [5 x i8]* %152, i64 0, i64 %154
  %156 = load i8, i8* %155, align 1
  %157 = sext i8 %156 to i32
  %158 = call i32 (i8*, ...) @printf(i8* getelementptr inbounds ([3 x i8], [3 x i8]* @.str.3, i64 0, i64 0), i32 %157)
  br label %159

159:                                              ; preds = %149
  %160 = load i32, i32* %4, align 4
  %161 = add nsw i32 %160, 1
  store i32 %161, i32* %4, align 4
  br label %145

162:                                              ; preds = %145
  %163 = call i32 (i8*, ...) @printf(i8* getelementptr inbounds ([2 x i8], [2 x i8]* @.str.4, i64 0, i64 0))
  br label %164

164:                                              ; preds = %162, %136
  br label %165

165:                                              ; preds = %164
  %166 = load i32, i32* %3, align 4
  %167 = add nsw i32 %166, 1
  store i32 %167, i32* %3, align 4
  br label %129

168:                                              ; preds = %129
  br label %171

169:                                              ; preds = %122
  %170 = call i32 (i8*, ...) @printf(i8* getelementptr inbounds ([3 x i8], [3 x i8]* @.str.5, i64 0, i64 0))
  br label %171

171:                                              ; preds = %169, %168
  ret i32 0
}

; Function Attrs: argmemonly nounwind willreturn
declare void @llvm.memset.p0i8.i64(i8* nocapture writeonly, i8, i64, i1 immarg) #1

declare dso_local i32 @__isoc99_scanf(i8*, ...) #2

; Function Attrs: nounwind readonly
declare dso_local i64 @strlen(i8*) #3

; Function Attrs: nounwind readonly
declare dso_local i32 @strcmp(i8*, i8*) #3

declare dso_local i32 @printf(i8*, ...) #2


!llvm.module.flags = !{!0}
!llvm.ident = !{!1}

!0 = !{i32 1, !"wchar_size", i32 4}
!1 = !{!"clang version 10.0.0-4ubuntu1 "}
